target datalayout = "e-m:e-p270:32:32-p271:32:32-p272:64:64-i64:64-i128:128-f80:128-n8:16:32:64-S128"
target triple = "x86_64-pc-linux-gnu"

%struct.CVodeMemRec = type { double, ptr, ptr, i32, i32, i32, double, double, ptr, i32, ptr, ptr, i32, ptr, i32, i32, double, double, ptr, i32, i32, i32, ptr, ptr, ptr, i32, i32, ptr, ptr, ptr, i32, double, i32, i32, double, ptr, ptr, i32, ptr, ptr, i32, i32, i32, double, ptr, ptr, [13 x ptr], ptr, ptr, ptr, ptr, ptr, [13 x ptr], ptr, ptr, ptr, ptr, [13 x ptr], ptr, ptr, ptr, ptr, ptr, i32, [13 x ptr], ptr, ptr, ptr, ptr, ptr, i32, double, i32, i32, i32, i32, i32, double, double, double, double, double, double, double, double, [14 x double], [6 x double], [13 x double], double, double, double, double, double, double, double, double, double, double, double, i32, ptr, i32, i64, i32, i32, i32, i32, i32, double, double, double, i64, i64, i64, i64, i64, i64, i64, i64, i64, ptr, i64, i64, ptr, i64, i64, i64, i64, i64, i64, i32, i64, i64, i64, i64, i64, i64, double, double, double, ptr, ptr, ptr, ptr, ptr, i32, i32, i64, double, double, double, i32, double, i32, i32, i32, i32, i32, i32, i32, i32, i32, i32, i32, i32, i32, i32, i32, i32, ptr, ptr, ptr, i32, [6 x [4 x double]], i32, i64, ptr, i32, ptr, ptr, double, double, double, ptr, ptr, ptr, double, double, i32, i32, i64, ptr, i32, i32, ptr, i32 }

@.str = private unnamed_addr constant [7 x i8] c"CVODES\00", align 1
@.str.2 = private unnamed_addr constant [26 x i8] c"cvode_mem = NULL illegal.\00", align 1
@.str.36 = private unnamed_addr constant [44 x i8] c"Forward sensitivity analysis not activated.\00", align 1
@.str.77 = private unnamed_addr constant [18 x i8] c"CVodeGetSensStats\00", align 1

; Function Attrs: nounwind uwtable
define i32 @CVodeGetSensStats(ptr noundef %0, ptr noundef %1, ptr noundef %2, ptr noundef %3, ptr noundef %4) #0 {
  %6 = alloca i32, align 4
  %7 = alloca ptr, align 8
  %8 = alloca ptr, align 8
  %9 = alloca ptr, align 8
  %10 = alloca ptr, align 8
  %11 = alloca ptr, align 8
  %12 = alloca ptr, align 8
  %13 = alloca i32, align 4
  store ptr %0, ptr %7, align 8, !tbaa !3
  store ptr %1, ptr %8, align 8, !tbaa !72
  store ptr %2, ptr %9, align 8, !tbaa !72
  store ptr %3, ptr %10, align 8, !tbaa !72
  store ptr %4, ptr %11, align 8, !tbaa !72
  call void @llvm.lifetime.start.p0(i64 8, ptr %12) #5
  %14 = load ptr, ptr %7, align 8, !tbaa !3
  %15 = icmp eq ptr %14, null
  br i1 %15, label %16, label %17

16:                                               ; preds = %5
  call void (ptr, i32, ptr, ptr, ptr, ...) @cvProcessError(ptr noundef null, i32 noundef -21, ptr noundef @.str, ptr noundef @.str.77, ptr noundef @.str.2)
  store i32 -21, ptr %6, align 4
  store i32 1, ptr %13, align 4
  br label %42

17:                                               ; preds = %5
  %18 = load ptr, ptr %7, align 8, !tbaa !3
  store ptr %18, ptr %12, align 8, !tbaa !7
  %19 = load ptr, ptr %12, align 8, !tbaa !7
  %20 = getelementptr inbounds nuw %struct.CVodeMemRec, ptr %19, i32 0, i32 19
  %21 = load i32, ptr %20, align 8, !tbaa !103
  %22 = icmp eq i32 %21, 0
  br i1 %22, label %23, label %25

23:                                               ; preds = %17
  %24 = load ptr, ptr %12, align 8, !tbaa !7
  call void (ptr, i32, ptr, ptr, ptr, ...) @cvProcessError(ptr noundef %24, i32 noundef -40, ptr noundef @.str, ptr noundef @.str.77, ptr noundef @.str.36)
  store i32 -40, ptr %6, align 4
  store i32 1, ptr %13, align 4
  br label %42

25:                                               ; preds = %17
  %26 = load ptr, ptr %12, align 8, !tbaa !7
  %27 = getelementptr inbounds nuw %struct.CVodeMemRec, ptr %26, i32 0, i32 114
  %28 = load i64, ptr %27, align 8, !tbaa !104
  %29 = load ptr, ptr %8, align 8, !tbaa !72
  store i64 %28, ptr %29, align 8, !tbaa !31
  %30 = load ptr, ptr %12, align 8, !tbaa !7
  %31 = getelementptr inbounds nuw %struct.CVodeMemRec, ptr %30, i32 0, i32 115
  %32 = load i64, ptr %31, align 8, !tbaa !105
  %33 = load ptr, ptr %9, align 8, !tbaa !72
  store i64 %32, ptr %33, align 8, !tbaa !31
  %34 = load ptr, ptr %12, align 8, !tbaa !7
  %35 = getelementptr inbounds nuw %struct.CVodeMemRec, ptr %34, i32 0, i32 126
  %36 = load i64, ptr %35, align 8, !tbaa !106
  %37 = load ptr, ptr %10, align 8, !tbaa !72
  store i64 %36, ptr %37, align 8, !tbaa !31
  %38 = load ptr, ptr %12, align 8, !tbaa !7
  %39 = getelementptr inbounds nuw %struct.CVodeMemRec, ptr %38, i32 0, i32 129
  %40 = load i64, ptr %39, align 8, !tbaa !107
  %41 = load ptr, ptr %11, align 8, !tbaa !72
  store i64 %40, ptr %41, align 8, !tbaa !31
  store i32 0, ptr %6, align 4
  store i32 1, ptr %13, align 4
  br label %42

42:                                               ; preds = %25, %23, %16
  call void @llvm.lifetime.end.p0(i64 8, ptr %12) #5
  %43 = load i32, ptr %6, align 4
  ret i32 %43
}